target datalayout = "e-m:e-p270:32:32-p271:32:32-p272:64:64-i64:64-i128:128-f80:128-n8:16:32:64-S128"
target triple = "x86_64-pc-linux-gnu"

%struct.OSQPSolver = type { ptr, ptr, ptr, ptr }
%struct.OSQPWorkspace_ = type { ptr, ptr, ptr, ptr, ptr, ptr, ptr, ptr, ptr, ptr, ptr, ptr, ptr, ptr, ptr, ptr, ptr, double, double, double, double, ptr, ptr, ptr, ptr, ptr, ptr, ptr, ptr, ptr, double, double, double, ptr, i64, i64, i64, i64, ptr, i64, double }
%struct.OSQPPolish = type { ptr, i64, ptr, ptr, ptr, ptr, double, double, double, double, double }
%struct.OSQPData = type { i64, i64, ptr, ptr, ptr, ptr, ptr }
%struct.linsys_solver = type { i32, ptr, ptr, ptr, ptr, ptr, ptr, ptr, ptr, i64 }
%struct.OSQPSettings = type { i64, i32, i64, i64, i64, i64, i64, i64, double, i64, double, double, i64, i64, double, i32, i64, i64, double, double, i64, double, double, double, double, i64, i64, i64, double, double, i64 }

@__func__.iterative_refinement = private unnamed_addr constant [21 x i8] c"iterative_refinement\00", align 1

; Function Attrs: nounwind uwtable
define internal i64 @iterative_refinement(ptr noundef %0, ptr noundef %1, ptr noundef %2, ptr noundef %3) #0 {
  %5 = alloca i64, align 8
  %6 = alloca ptr, align 8
  %7 = alloca ptr, align 8
  %8 = alloca ptr, align 8
  %9 = alloca ptr, align 8
  %10 = alloca i64, align 8
  %11 = alloca i64, align 8
  %12 = alloca ptr, align 8
  %13 = alloca ptr, align 8
  %14 = alloca ptr, align 8
  %15 = alloca ptr, align 8
  %16 = alloca ptr, align 8
  %17 = alloca ptr, align 8
  %18 = alloca ptr, align 8
  %19 = alloca i32, align 4
  store ptr %0, ptr %6, align 8, !tbaa !3
  store ptr %1, ptr %7, align 8, !tbaa !9
  store ptr %2, ptr %8, align 8, !tbaa !11
  store ptr %3, ptr %9, align 8, !tbaa !11
  call void @llvm.lifetime.start.p0(i64 8, ptr %10) #5
  call void @llvm.lifetime.start.p0(i64 8, ptr %11) #5
  call void @llvm.lifetime.start.p0(i64 8, ptr %12) #5
  call void @llvm.lifetime.start.p0(i64 8, ptr %13) #5
  call void @llvm.lifetime.start.p0(i64 8, ptr %14) #5
  call void @llvm.lifetime.start.p0(i64 8, ptr %15) #5
  call void @llvm.lifetime.start.p0(i64 8, ptr %16) #5
  call void @llvm.lifetime.start.p0(i64 8, ptr %17) #5
  %20 = load ptr, ptr %6, align 8, !tbaa !3
  %21 = getelementptr inbounds nuw %struct.OSQPSolver, ptr %20, i32 0, i32 0
  %22 = load ptr, ptr %21, align 8, !tbaa !16
  store ptr %22, ptr %17, align 8, !tbaa !3
  call void @llvm.lifetime.start.p0(i64 8, ptr %18) #5
  %23 = load ptr, ptr %6, align 8, !tbaa !3
  %24 = getelementptr inbounds nuw %struct.OSQPSolver, ptr %23, i32 0, i32 3
  %25 = load ptr, ptr %24, align 8, !tbaa !17
  store ptr %25, ptr %18, align 8, !tbaa !18
  %26 = load ptr, ptr %17, align 8, !tbaa !3
  %27 = getelementptr inbounds nuw %struct.OSQPSettings, ptr %26, i32 0, i32 30
  %28 = load i64, ptr %27, align 8, !tbaa !73
  %29 = icmp sgt i64 %28, 0
  br i1 %29, label %30, label %140

30:                                               ; preds = %4
  %31 = load ptr, ptr %18, align 8, !tbaa !18
  %32 = getelementptr inbounds nuw %struct.OSQPWorkspace_, ptr %31, i32 0, i32 2
  %33 = load ptr, ptr %32, align 8, !tbaa !26
  %34 = getelementptr inbounds nuw %struct.OSQPPolish, ptr %33, i32 0, i32 0
  %35 = load ptr, ptr %34, align 8, !tbaa !30
  %36 = call i64 @OSQPMatrix_get_m(ptr noundef %35)
  store i64 %36, ptr %11, align 8, !tbaa !7
  %37 = load ptr, ptr %18, align 8, !tbaa !18
  %38 = getelementptr inbounds nuw %struct.OSQPWorkspace_, ptr %37, i32 0, i32 0
  %39 = load ptr, ptr %38, align 8, !tbaa !31
  %40 = getelementptr inbounds nuw %struct.OSQPData, ptr %39, i32 0, i32 0
  %41 = load i64, ptr %40, align 8, !tbaa !34
  %42 = load i64, ptr %11, align 8, !tbaa !7
  %43 = add nsw i64 %41, %42
  %44 = call ptr @OSQPVectorf_malloc(i64 noundef %43)
  store ptr %44, ptr %12, align 8, !tbaa !11
  %45 = load ptr, ptr %12, align 8, !tbaa !11
  %46 = load ptr, ptr %18, align 8, !tbaa !18
  %47 = getelementptr inbounds nuw %struct.OSQPWorkspace_, ptr %46, i32 0, i32 0
  %48 = load ptr, ptr %47, align 8, !tbaa !31
  %49 = getelementptr inbounds nuw %struct.OSQPData, ptr %48, i32 0, i32 0
  %50 = load i64, ptr %49, align 8, !tbaa !34
  %51 = call ptr @OSQPVectorf_view(ptr noundef %45, i64 noundef 0, i64 noundef %50)
  store ptr %51, ptr %13, align 8, !tbaa !11
  %52 = load ptr, ptr %12, align 8, !tbaa !11
  %53 = load ptr, ptr %18, align 8, !tbaa !18
  %54 = getelementptr inbounds nuw %struct.OSQPWorkspace_, ptr %53, i32 0, i32 0
  %55 = load ptr, ptr %54, align 8, !tbaa !31
  %56 = getelementptr inbounds nuw %struct.OSQPData, ptr %55, i32 0, i32 0
  %57 = load i64, ptr %56, align 8, !tbaa !34
  %58 = load i64, ptr %11, align 8, !tbaa !7
  %59 = call ptr @OSQPVectorf_view(ptr noundef %52, i64 noundef %57, i64 noundef %58)
  store ptr %59, ptr %14, align 8, !tbaa !11
  %60 = load ptr, ptr %8, align 8, !tbaa !11
  %61 = load ptr, ptr %18, align 8, !tbaa !18
  %62 = getelementptr inbounds nuw %struct.OSQPWorkspace_, ptr %61, i32 0, i32 0
  %63 = load ptr, ptr %62, align 8, !tbaa !31
  %64 = getelementptr inbounds nuw %struct.OSQPData, ptr %63, i32 0, i32 0
  %65 = load i64, ptr %64, align 8, !tbaa !34
  %66 = call ptr @OSQPVectorf_view(ptr noundef %60, i64 noundef 0, i64 noundef %65)
  store ptr %66, ptr %15, align 8, !tbaa !11
  %67 = load ptr, ptr %8, align 8, !tbaa !11
  %68 = load ptr, ptr %18, align 8, !tbaa !18
  %69 = getelementptr inbounds nuw %struct.OSQPWorkspace_, ptr %68, i32 0, i32 0
  %70 = load ptr, ptr %69, align 8, !tbaa !31
  %71 = getelementptr inbounds nuw %struct.OSQPData, ptr %70, i32 0, i32 0
  %72 = load i64, ptr %71, align 8, !tbaa !34
  %73 = load i64, ptr %11, align 8, !tbaa !7
  %74 = call ptr @OSQPVectorf_view(ptr noundef %67, i64 noundef %72, i64 noundef %73)
  store ptr %74, ptr %16, align 8, !tbaa !11
  %75 = load ptr, ptr %12, align 8, !tbaa !11
  %76 = icmp ne ptr %75, null
  br i1 %76, label %77, label %89

77:                                               ; preds = %30
  %78 = load ptr, ptr %13, align 8, !tbaa !11
  %79 = icmp ne ptr %78, null
  br i1 %79, label %80, label %89

80:                                               ; preds = %77
  %81 = load ptr, ptr %14, align 8, !tbaa !11
  %82 = icmp ne ptr %81, null
  br i1 %82, label %83, label %89

83:                                               ; preds = %80
  %84 = load ptr, ptr %15, align 8, !tbaa !11
  %85 = icmp ne ptr %84, null
  br i1 %85, label %86, label %89

86:                                               ; preds = %83
  %87 = load ptr, ptr %16, align 8, !tbaa !11
  %88 = icmp ne ptr %87, null
  br i1 %88, label %91, label %89

89:                                               ; preds = %86, %83, %80, %77, %30
  %90 = call i64 @_osqp_error(i32 noundef 5, ptr noundef @__func__.iterative_refinement)
  store i64 %90, ptr %5, align 8
  store i32 1, ptr %19, align 4
  br label %141

91:                                               ; preds = %86
  store i64 0, ptr %10, align 8, !tbaa !7
  br label %92

92:                                               ; preds = %131, %91
  %93 = load i64, ptr %10, align 8, !tbaa !7
  %94 = load ptr, ptr %17, align 8, !tbaa !3
  %95 = getelementptr inbounds nuw %struct.OSQPSettings, ptr %94, i32 0, i32 30
  %96 = load i64, ptr %95, align 8, !tbaa !73
  %97 = icmp slt i64 %93, %96
  br i1 %97, label %98, label %134

98:                                               ; preds = %92
  %99 = load ptr, ptr %12, align 8, !tbaa !11
  %100 = load ptr, ptr %9, align 8, !tbaa !11
  call void @OSQPVectorf_copy(ptr noundef %99, ptr noundef %100)
  %101 = load ptr, ptr %18, align 8, !tbaa !18
  %102 = getelementptr inbounds nuw %struct.OSQPWorkspace_, ptr %101, i32 0, i32 0
  %103 = load ptr, ptr %102, align 8, !tbaa !31
  %104 = getelementptr inbounds nuw %struct.OSQPData, ptr %103, i32 0, i32 2
  %105 = load ptr, ptr %104, align 8, !tbaa !32
  %106 = load ptr, ptr %15, align 8, !tbaa !11
  %107 = load ptr, ptr %13, align 8, !tbaa !11
  call void @OSQPMatrix_Axpy(ptr noundef %105, ptr noundef %106, ptr noundef %107, double noundef -1.000000e+00, double noundef 1.000000e+00)
  %108 = load ptr, ptr %18, align 8, !tbaa !18
  %109 = getelementptr inbounds nuw %struct.OSQPWorkspace_, ptr %108, i32 0, i32 2
  %110 = load ptr, ptr %109, align 8, !tbaa !26
  %111 = getelementptr inbounds nuw %struct.OSQPPolish, ptr %110, i32 0, i32 0
  %112 = load ptr, ptr %111, align 8, !tbaa !30
  %113 = load ptr, ptr %16, align 8, !tbaa !11
  %114 = load ptr, ptr %13, align 8, !tbaa !11
  call void @OSQPMatrix_Atxpy(ptr noundef %112, ptr noundef %113, ptr noundef %114, double noundef -1.000000e+00, double noundef 1.000000e+00)
  %115 = load ptr, ptr %18, align 8, !tbaa !18
  %116 = getelementptr inbounds nuw %struct.OSQPWorkspace_, ptr %115, i32 0, i32 2
  %117 = load ptr, ptr %116, align 8, !tbaa !26
  %118 = getelementptr inbounds nuw %struct.OSQPPolish, ptr %117, i32 0, i32 0
  %119 = load ptr, ptr %118, align 8, !tbaa !30
  %120 = load ptr, ptr %15, align 8, !tbaa !11
  %121 = load ptr, ptr %14, align 8, !tbaa !11
  call void @OSQPMatrix_Axpy(ptr noundef %119, ptr noundef %120, ptr noundef %121, double noundef -1.000000e+00, double noundef 1.000000e+00)
  %122 = load ptr, ptr %7, align 8, !tbaa !9
  %123 = getelementptr inbounds nuw %struct.linsys_solver, ptr %122, i32 0, i32 2
  %124 = load ptr, ptr %123, align 8, !tbaa !39
  %125 = load ptr, ptr %7, align 8, !tbaa !9
  %126 = load ptr, ptr %12, align 8, !tbaa !11
  %127 = call i64 %124(ptr noundef %125, ptr noundef %126, i64 noundef 1)
  %128 = load ptr, ptr %8, align 8, !tbaa !11
  %129 = load ptr, ptr %8, align 8, !tbaa !11
  %130 = load ptr, ptr %12, align 8, !tbaa !11
  call void @OSQPVectorf_plus(ptr noundef %128, ptr noundef %129, ptr noundef %130)
  br label %131

131:                                              ; preds = %98
  %132 = load i64, ptr %10, align 8, !tbaa !7
  %133 = add nsw i64 %132, 1
  store i64 %133, ptr %10, align 8, !tbaa !7
  br label %92, !llvm.loop !74

134:                                              ; preds = %92
  %135 = load ptr, ptr %12, align 8, !tbaa !11
  call void @OSQPVectorf_free(ptr noundef %135)
  %136 = load ptr, ptr %13, align 8, !tbaa !11
  call void @OSQPVectorf_view_free(ptr noundef %136)
  %137 = load ptr, ptr %14, align 8, !tbaa !11
  call void @OSQPVectorf_view_free(ptr noundef %137)
  %138 = load ptr, ptr %15, align 8, !tbaa !11
  call void @OSQPVectorf_view_free(ptr noundef %138)
  %139 = load ptr, ptr %16, align 8, !tbaa !11
  call void @OSQPVectorf_view_free(ptr noundef %139)
  br label %140

140:                                              ; preds = %134, %4
  store i64 0, ptr %5, align 8
  store i32 1, ptr %19, align 4
  br label %141

141:                                              ; preds = %140, %89
  call void @llvm.lifetime.end.p0(i64 8, ptr %18) #5
  call void @llvm.lifetime.end.p0(i64 8, ptr %17) #5
  call void @llvm.lifetime.end.p0(i64 8, ptr %16) #5
  call void @llvm.lifetime.end.p0(i64 8, ptr %15) #5
  call void @llvm.lifetime.end.p0(i64 8, ptr %14) #5
  call void @llvm.lifetime.end.p0(i64 8, ptr %13) #5
  call void @llvm.lifetime.end.p0(i64 8, ptr %12) #5
  call void @llvm.lifetime.end.p0(i64 8, ptr %11) #5
  call void @llvm.lifetime.end.p0(i64 8, ptr %10) #5
  %142 = load i64, ptr %5, align 8
  ret i64 %142
}