; Function Attrs: nounwind uwtable
define internal fastcc i64 @iterative_refinement(ptr readonly captures(none) %.0.val, ptr readonly captures(none) %.24.val, ptr noundef %0, ptr noundef nonnull %1, ptr noundef nonnull %2) unnamed_addr #0 {
  %4 = getelementptr inbounds nuw i8, ptr %.0.val, i64 240
  %5 = load i64, ptr %4, align 8, !tbaa !66
  %6 = icmp sgt i64 %5, 0
  br i1 %6, label %7, label %51

7:                                                ; preds = %3
  %8 = getelementptr inbounds nuw i8, ptr %.24.val, i64 16
  %9 = load ptr, ptr %8, align 8, !tbaa !24
  %10 = load ptr, ptr %9, align 8, !tbaa !37
  %11 = tail call i64 @OSQPMatrix_get_m(ptr noundef %10) #6
  %12 = load ptr, ptr %.24.val, align 8, !tbaa !20
  %13 = load i64, ptr %12, align 8, !tbaa !41
  %14 = add nsw i64 %13, %11
  %15 = tail call ptr @OSQPVectorf_malloc(i64 noundef %14) #6
  %16 = load ptr, ptr %.24.val, align 8, !tbaa !20
  %17 = load i64, ptr %16, align 8, !tbaa !41
  %18 = tail call ptr @OSQPVectorf_view(ptr noundef %15, i64 noundef 0, i64 noundef %17) #6
  %19 = load ptr, ptr %.24.val, align 8, !tbaa !20
  %20 = load i64, ptr %19, align 8, !tbaa !41
  %21 = tail call ptr @OSQPVectorf_view(ptr noundef %15, i64 noundef %20, i64 noundef %11) #6
  %22 = load ptr, ptr %.24.val, align 8, !tbaa !20
  %23 = load i64, ptr %22, align 8, !tbaa !41
  %24 = tail call ptr @OSQPVectorf_view(ptr noundef nonnull %1, i64 noundef 0, i64 noundef %23) #6
  %25 = load ptr, ptr %.24.val, align 8, !tbaa !20
  %26 = load i64, ptr %25, align 8, !tbaa !41
  %27 = tail call ptr @OSQPVectorf_view(ptr noundef nonnull %1, i64 noundef %26, i64 noundef %11) #6
  %28 = icmp ne ptr %15, null
  %29 = icmp ne ptr %18, null
  %or.cond = select i1 %28, i1 %29, i1 false
  %30 = icmp ne ptr %21, null
  %or.cond3 = select i1 %or.cond, i1 %30, i1 false
  %31 = icmp ne ptr %24, null
  %or.cond5 = select i1 %or.cond3, i1 %31, i1 false
  %32 = icmp ne ptr %27, null
  %or.cond7 = select i1 %or.cond5, i1 %32, i1 false
  br i1 %or.cond7, label %.preheader, label %36

.preheader:                                       ; preds = %7
  %33 = load i64, ptr %4, align 8, !tbaa !66
  %34 = icmp sgt i64 %33, 0
  br i1 %34, label %.lr.ph, label %._crit_edge

.lr.ph:                                           ; preds = %.preheader
  %35 = getelementptr inbounds nuw i8, ptr %0, i64 16
  br label %38

36:                                               ; preds = %7
  %37 = tail call i64 @_osqp_error(i32 noundef 5, ptr noundef nonnull @__func__.iterative_refinement) #6
  br label %51

38:                                               ; preds = %.lr.ph, %38
  %.0531 = phi i64 [ 0, %.lr.ph ], [ %48, %38 ]
  tail call void @OSQPVectorf_copy(ptr noundef nonnull %15, ptr noundef nonnull %2) #6
  %39 = load ptr, ptr %.24.val, align 8, !tbaa !20
  %40 = getelementptr inbounds nuw i8, ptr %39, i64 16
  %41 = load ptr, ptr %40, align 8, !tbaa !40
  tail call void @OSQPMatrix_Axpy(ptr noundef %41, ptr noundef nonnull %24, ptr noundef nonnull %18, double noundef -1.000000e+00, double noundef 1.000000e+00) #6
  %42 = load ptr, ptr %8, align 8, !tbaa !24
  %43 = load ptr, ptr %42, align 8, !tbaa !37
  tail call void @OSQPMatrix_Atxpy(ptr noundef %43, ptr noundef nonnull %27, ptr noundef nonnull %18, double noundef -1.000000e+00, double noundef 1.000000e+00) #6
  %44 = load ptr, ptr %8, align 8, !tbaa !24
  %45 = load ptr, ptr %44, align 8, !tbaa !37
  tail call void @OSQPMatrix_Axpy(ptr noundef %45, ptr noundef nonnull %24, ptr noundef nonnull %21, double noundef -1.000000e+00, double noundef 1.000000e+00) #6
  %46 = load ptr, ptr %35, align 8, !tbaa !49
  %47 = tail call i64 %46(ptr noundef %0, ptr noundef nonnull %15, i64 noundef 1) #6
  tail call void @OSQPVectorf_plus(ptr noundef nonnull %1, ptr noundef nonnull %1, ptr noundef nonnull %15) #6
  %48 = add nuw nsw i64 %.0531, 1
  %49 = load i64, ptr %4, align 8, !tbaa !66
  %50 = icmp slt i64 %48, %49
  br i1 %50, label %38, label %._crit_edge, !llvm.loop !67

._crit_edge:                                      ; preds = %38, %.preheader
  tail call void @OSQPVectorf_free(ptr noundef nonnull %15) #6
  tail call void @OSQPVectorf_view_free(ptr noundef nonnull %18) #6
  tail call void @OSQPVectorf_view_free(ptr noundef nonnull %21) #6
  tail call void @OSQPVectorf_view_free(ptr noundef nonnull %24) #6
  tail call void @OSQPVectorf_view_free(ptr noundef nonnull %27) #6
  br label %51

51:                                               ; preds = %3, %._crit_edge, %36
  %.0 = phi i64 [ %37, %36 ], [ 0, %._crit_edge ], [ 0, %3 ]
  ret i64 %.0
}